target datalayout = "e-m:e-p270:32:32-p271:32:32-p272:64:64-i64:64-i128:128-f80:128-n8:16:32:64-S128"
target triple = "x86_64-unknown-linux-gnu"

; Function Attrs: mustprogress nounwind uwtable
define hidden noundef zeroext i1 @_ZN19OpenColorIO_v2_4dev11RangeOpData12FloatsDifferEdd(double noundef %x1, double noundef %x2) #5 align 2 {
entry:
  %x1.addr = alloca double, align 8
  %x2.addr = alloca double, align 8
  %different = alloca i8, align 1
  store double %x1, ptr %x1.addr, align 8
  store double %x2, ptr %x2.addr, align 8
  store i8 0, ptr %different, align 1
  %0 = load double, ptr %x1.addr, align 8
  %1 = call double @llvm.fabs.f64(double %0)
  %cmp = fcmp olt double %1, 1.000000e-03
  br i1 %cmp, label %if.then, label %if.else

if.then:                                          ; preds = %entry
  %2 = load double, ptr %x1.addr, align 8
  %3 = load double, ptr %x2.addr, align 8
  %sub = fsub double %2, %3
  %4 = call double @llvm.fabs.f64(double %sub)
  %cmp1 = fcmp ogt double %4, 0x3EB0C6F7A0B5ED8D
  %frombool = zext i1 %cmp1 to i8
  store i8 %frombool, ptr %different, align 1
  br label %if.end

if.else:                                          ; preds = %entry
  %5 = load double, ptr %x2.addr, align 8
  %6 = load double, ptr %x1.addr, align 8
  %div = fdiv double %5, %6
  %sub2 = fsub double 1.000000e+00, %div
  %7 = call double @llvm.fabs.f64(double %sub2)
  %cmp3 = fcmp ogt double %7, 0x3EB0C6F7A0B5ED8D
  %frombool4 = zext i1 %cmp3 to i8
  store i8 %frombool4, ptr %different, align 1
  br label %if.end

if.end:                                           ; preds = %if.else, %if.then
  %8 = load i8, ptr %different, align 1
  %tobool = trunc i8 %8 to i1
  ret i1 %tobool
}