; Function Attrs: mustprogress nofree norecurse nosync nounwind willreturn memory(none) uwtable
define hidden noundef zeroext i1 @_ZN19OpenColorIO_v2_4dev11RangeOpData12FloatsDifferEdd(double noundef %x1, double noundef %x2) local_unnamed_addr #4 align 2 {
entry:
  %0 = tail call double @llvm.fabs.f64(double %x1)
  %cmp = fcmp olt double %0, 1.000000e-03
  %div = fdiv double %x2, %x1
  %sub2 = fsub double 1.000000e+00, %div
  %sub = fsub double %x1, %x2
  %sub2.sink = select i1 %cmp, double %sub, double %sub2
  %1 = tail call double @llvm.fabs.f64(double %sub2.sink)
  %different.0.in = fcmp ogt double %1, 0x3EB0C6F7A0B5ED8D
  ret i1 %different.0.in
}